target datalayout = "e-m:e-p270:32:32-p271:32:32-p272:64:64-i64:64-i128:128-f80:128-n8:16:32:64-S128"
target triple = "x86_64-pc-linux-gnu"

%"class.base::SharedMemory" = type { i32, i32, i64, ptr, i8, i64 }
%"class.logging::LogMessageVoidify" = type { i8 }
%"class.logging::ErrnoLogMessage" = type { i32, [4 x i8], %"class.logging::LogMessage" }
%"class.logging::LogMessage" = type <{ i32, [4 x i8], %"class.std::__cxx11::basic_ostringstream", i64, ptr, i32, [4 x i8] }>
%"class.std::__cxx11::basic_ostringstream" = type { %"class.std::basic_ostream.base", %"class.std::__cxx11::basic_stringbuf", %"class.std::basic_ios" }
%"class.std::basic_ostream.base" = type { ptr }
%"class.std::__cxx11::basic_stringbuf" = type { %"class.std::basic_streambuf", i32, %"class.std::__cxx11::basic_string" }
%"class.std::basic_streambuf" = type { ptr, ptr, ptr, ptr, ptr, ptr, ptr, %"class.std::locale" }
%"class.std::locale" = type { ptr }
%"class.std::__cxx11::basic_string" = type { %"struct.std::__cxx11::basic_string<char>::_Alloc_hider", i64, %union.anon }
%"struct.std::__cxx11::basic_string<char>::_Alloc_hider" = type { ptr }
%union.anon = type { i64, [8 x i8] }
%"class.std::basic_ios" = type { %"class.std::ios_base", ptr, i8, i8, ptr, ptr, ptr, ptr }
%"class.std::ios_base" = type { ptr, i64, i64, i32, i32, i32, ptr, %"struct.std::ios_base::_Words", [8 x %"struct.std::ios_base::_Words"], i32, ptr, %"class.std::locale" }
%"struct.std::ios_base::_Words" = type { ptr, i64 }

@.str = private unnamed_addr constant [132 x i8] c"generated/home/dtcxzyw/WorkSpace/Projects/compilers/llvm-opt-benchmark/bench/libquic/libquic/src/base/memory/shared_memory_posix.cc\00", align 1
@.str.11 = private unnamed_addr constant [6 x i8] c"close\00", align 1

; Function Attrs: inlinehint mustprogress nounwind uwtable
define linkonce_odr noundef i32 @_ZStorSt12_Ios_IostateS_(i32 noundef %0, i32 noundef %1) #8 comdat {
  %3 = alloca i32, align 4
  %4 = alloca i32, align 4
  store i32 %0, ptr %3, align 4, !tbaa !147
  store i32 %1, ptr %4, align 4, !tbaa !147
  %5 = load i32, ptr %3, align 4, !tbaa !147
  %6 = load i32, ptr %4, align 4, !tbaa !147
  %7 = or i32 %5, %6
  ret i32 %7
}

; Function Attrs: mustprogress nounwind uwtable
define available_externally noundef i32 @_ZNKSt9basic_iosIcSt11char_traitsIcEE7rdstateEv(ptr noundef nonnull align 8 dereferenceable(264) %0) #0 align 2 {
  %2 = alloca ptr, align 8
  store ptr %0, ptr %2, align 8, !tbaa !145
  %3 = load ptr, ptr %2, align 8
  %4 = getelementptr inbounds nuw %"class.std::ios_base", ptr %3, i32 0, i32 5
  %5 = load i32, ptr %4, align 8, !tbaa !149
  ret i32 %5
}

; Function Attrs: mustprogress nounwind uwtable
define linkonce_odr noundef i64 @_ZNSt11char_traitsIcE6lengthEPKc(ptr noundef %0) #0 comdat align 2 {
  %2 = alloca ptr, align 8
  store ptr %0, ptr %2, align 8, !tbaa !71
  %3 = load ptr, ptr %2, align 8, !tbaa !71
  %4 = call i64 @strlen(ptr noundef %3) #16
  ret i64 %4
}

; Function Attrs: mustprogress uwtable
define available_externally void @_ZNSt9basic_iosIcSt11char_traitsIcEE8setstateESt12_Ios_Iostate(ptr noundef nonnull align 8 dereferenceable(264) %0, i32 noundef %1) #2 align 2 {
  %3 = alloca ptr, align 8
  %4 = alloca i32, align 4
  store ptr %0, ptr %3, align 8, !tbaa !145
  store i32 %1, ptr %4, align 4, !tbaa !147
  %5 = load ptr, ptr %3, align 8
  %6 = call noundef i32 @_ZNKSt9basic_iosIcSt11char_traitsIcEE7rdstateEv(ptr noundef nonnull align 8 dereferenceable(264) %5)
  %7 = load i32, ptr %4, align 4, !tbaa !147
  %8 = call noundef i32 @_ZStorSt12_Ios_IostateS_(i32 noundef %6, i32 noundef %7)
  call void @_ZNSt9basic_iosIcSt11char_traitsIcEE5clearESt12_Ios_Iostate(ptr noundef nonnull align 8 dereferenceable(264) %5, i32 noundef %8)
  ret void
}

; Function Attrs: mustprogress nounwind uwtable
define linkonce_odr noundef nonnull align 8 dereferenceable(8) ptr @_ZN7logging10LogMessage6streamEv(ptr noundef nonnull align 8 dereferenceable(404) %0) #0 comdat align 2 {
  %2 = alloca ptr, align 8
  store ptr %0, ptr %2, align 8, !tbaa !41
  %3 = load ptr, ptr %2, align 8
  %4 = getelementptr inbounds nuw %"class.logging::LogMessage", ptr %3, i32 0, i32 2
  ret ptr %4
}

; Function Attrs: mustprogress nounwind uwtable
define linkonce_odr void @_ZN7logging17LogMessageVoidifyanERSo(ptr noundef nonnull align 1 dereferenceable(1) %0, ptr noundef nonnull align 8 dereferenceable(8) %1) #0 comdat align 2 {
  %3 = alloca ptr, align 8
  %4 = alloca ptr, align 8
  store ptr %0, ptr %3, align 8, !tbaa !67
  store ptr %1, ptr %4, align 8, !tbaa !69
  ret void
}

; Function Attrs: inlinehint mustprogress uwtable
define available_externally noundef nonnull align 8 dereferenceable(8) ptr @_ZStlsISt11char_traitsIcEERSt13basic_ostreamIcT_ES5_PKc(ptr noundef nonnull align 8 dereferenceable(8) %0, ptr noundef %1) #7 {
  %3 = alloca ptr, align 8
  %4 = alloca ptr, align 8
  store ptr %0, ptr %3, align 8, !tbaa !69
  store ptr %1, ptr %4, align 8, !tbaa !71
  %5 = load ptr, ptr %4, align 8, !tbaa !71
  %6 = icmp ne ptr %5, null
  br i1 %6, label %13, label %7

7:                                                ; preds = %2
  %8 = load ptr, ptr %3, align 8, !tbaa !69
  %9 = load ptr, ptr %8, align 8, !tbaa !73
  %10 = getelementptr i8, ptr %9, i64 -24
  %11 = load i64, ptr %10, align 8
  %12 = getelementptr inbounds i8, ptr %8, i64 %11
  call void @_ZNSt9basic_iosIcSt11char_traitsIcEE8setstateESt12_Ios_Iostate(ptr noundef nonnull align 8 dereferenceable(264) %12, i32 noundef 1)
  br label %19

13:                                               ; preds = %2
  %14 = load ptr, ptr %3, align 8, !tbaa !69
  %15 = load ptr, ptr %4, align 8, !tbaa !71
  %16 = load ptr, ptr %4, align 8, !tbaa !71
  %17 = call noundef i64 @_ZNSt11char_traitsIcE6lengthEPKc(ptr noundef %16)
  %18 = call noundef nonnull align 8 dereferenceable(8) ptr @_ZSt16__ostream_insertIcSt11char_traitsIcEERSt13basic_ostreamIT_T0_ES6_PKS3_l(ptr noundef nonnull align 8 dereferenceable(8) %14, ptr noundef %15, i64 noundef %17)
  br label %19

19:                                               ; preds = %13, %7
  %20 = load ptr, ptr %3, align 8, !tbaa !69
  ret ptr %20
}

; Function Attrs: mustprogress nounwind uwtable
define linkonce_odr noundef nonnull align 8 dereferenceable(8) ptr @_ZN7logging15ErrnoLogMessage6streamEv(ptr noundef nonnull align 8 dereferenceable(416) %0) #0 comdat align 2 {
  %2 = alloca ptr, align 8
  store ptr %0, ptr %2, align 8, !tbaa !84
  %3 = load ptr, ptr %2, align 8
  %4 = getelementptr inbounds nuw %"class.logging::ErrnoLogMessage", ptr %3, i32 0, i32 2
  %5 = call noundef nonnull align 8 dereferenceable(8) ptr @_ZN7logging10LogMessage6streamEv(ptr noundef nonnull align 8 dereferenceable(404) %4)
  ret ptr %5
}

; Function Attrs: mustprogress nounwind uwtable
define linkonce_odr void @_ZN7logging17LogMessageVoidifyC2Ev(ptr noundef nonnull align 1 dereferenceable(1) %0) unnamed_addr #0 comdat align 2 {
  %2 = alloca ptr, align 8
  store ptr %0, ptr %2, align 8, !tbaa !67
  ret void
}

; Function Attrs: mustprogress uwtable
define void @_ZN4base12SharedMemory5CloseEv(ptr noundef nonnull align 8 dereferenceable(40) %0) #2 align 2 personality ptr @__gxx_personality_v0 {
  %2 = alloca ptr, align 8
  %3 = alloca i32, align 4
  %4 = alloca i32, align 4
  %5 = alloca %"class.logging::LogMessageVoidify", align 1
  %6 = alloca %"class.logging::ErrnoLogMessage", align 8
  %7 = alloca i1, align 1
  %8 = alloca i1, align 1
  %9 = alloca ptr, align 8
  %10 = alloca i32, align 4
  %11 = alloca i32, align 4
  %12 = alloca i32, align 4
  %13 = alloca %"class.logging::LogMessageVoidify", align 1
  %14 = alloca %"class.logging::ErrnoLogMessage", align 8
  %15 = alloca i1, align 1
  %16 = alloca i1, align 1
  store ptr %0, ptr %2, align 8, !tbaa !17
  %17 = load ptr, ptr %2, align 8
  %18 = getelementptr inbounds nuw %"class.base::SharedMemory", ptr %17, i32 0, i32 0
  %19 = load i32, ptr %18, align 8, !tbaa !19
  %20 = icmp sgt i32 %19, 0
  br i1 %20, label %21, label %68

21:                                               ; preds = %1
  call void @llvm.lifetime.start.p0(i64 4, ptr %3) #16
  br label %22

22:                                               ; preds = %21
  %23 = getelementptr inbounds nuw %"class.base::SharedMemory", ptr %17, i32 0, i32 0
  %24 = load i32, ptr %23, align 8, !tbaa !19
  %25 = call i32 @close(i32 noundef %24)
  store i32 %25, ptr %3, align 4, !tbaa !34
  %26 = load i32, ptr %3, align 4, !tbaa !34
  %27 = icmp eq i32 %26, -1
  br i1 %27, label %28, label %33

28:                                               ; preds = %22
  %29 = call ptr @__errno_location() #17
  %30 = load i32, ptr %29, align 4, !tbaa !34
  %31 = icmp eq i32 %30, 4
  br i1 %31, label %32, label %33

32:                                               ; preds = %28
  store i32 0, ptr %3, align 4, !tbaa !34
  br label %33

33:                                               ; preds = %32, %28, %22
  br label %34

34:                                               ; preds = %33
  br label %35

35:                                               ; preds = %34
  %36 = load i32, ptr %3, align 4, !tbaa !34
  store i32 %36, ptr %4, align 4, !tbaa !34
  call void @llvm.lifetime.end.p0(i64 4, ptr %3) #16
  %37 = load i32, ptr %4, align 4, !tbaa !34
  %38 = icmp slt i32 %37, 0
  br i1 %38, label %39, label %66

39:                                               ; preds = %35
  %40 = call noundef zeroext i1 @_ZN7logging22ShouldCreateLogMessageEi(i32 noundef 2)
  call void @llvm.lifetime.start.p0(i64 1, ptr %5) #16
  store i1 false, ptr %7, align 1
  store i1 false, ptr %8, align 1
  br i1 %40, label %42, label %41

41:                                               ; preds = %39
  br label %49

42:                                               ; preds = %39
  call void @_ZN7logging17LogMessageVoidifyC2Ev(ptr noundef nonnull align 1 dereferenceable(1) %5)
  call void @llvm.lifetime.start.p0(i64 416, ptr %6) #16
  store i1 true, ptr %7, align 1
  %43 = call noundef i32 @_ZN7logging22GetLastSystemErrorCodeEv()
  call void @_ZN7logging15ErrnoLogMessageC1EPKciii(ptr noundef nonnull align 8 dereferenceable(416) %6, ptr noundef @.str, i32 noundef 404, i32 noundef 2, i32 noundef %43)
  store i1 true, ptr %8, align 1
  %44 = invoke noundef nonnull align 8 dereferenceable(8) ptr @_ZN7logging15ErrnoLogMessage6streamEv(ptr noundef nonnull align 8 dereferenceable(416) %6)
          to label %45 unwind label %56

45:                                               ; preds = %42
  %46 = invoke noundef nonnull align 8 dereferenceable(8) ptr @_ZStlsISt11char_traitsIcEERSt13basic_ostreamIcT_ES5_PKc(ptr noundef nonnull align 8 dereferenceable(8) %44, ptr noundef @.str.11)
          to label %47 unwind label %56

47:                                               ; preds = %45
  invoke void @_ZN7logging17LogMessageVoidifyanERSo(ptr noundef nonnull align 1 dereferenceable(1) %5, ptr noundef nonnull align 8 dereferenceable(8) %46)
          to label %48 unwind label %56

48:                                               ; preds = %47
  br label %49

49:                                               ; preds = %48, %41
  %50 = load i1, ptr %8, align 1
  br i1 %50, label %51, label %52

51:                                               ; preds = %49
  call void @_ZN7logging15ErrnoLogMessageD1Ev(ptr noundef nonnull align 8 dereferenceable(416) %6) #16
  br label %52

52:                                               ; preds = %51, %49
  %53 = load i1, ptr %7, align 1
  br i1 %53, label %54, label %55

54:                                               ; preds = %52
  call void @llvm.lifetime.end.p0(i64 416, ptr %6) #16
  br label %55

55:                                               ; preds = %54, %52
  call void @llvm.lifetime.end.p0(i64 1, ptr %5) #16
  br label %66

56:                                               ; preds = %47, %45, %42
  %57 = landingpad { ptr, i32 }
          cleanup
  %58 = extractvalue { ptr, i32 } %57, 0
  store ptr %58, ptr %9, align 8
  %59 = extractvalue { ptr, i32 } %57, 1
  store i32 %59, ptr %10, align 4
  %60 = load i1, ptr %8, align 1
  br i1 %60, label %61, label %62

61:                                               ; preds = %56
  call void @_ZN7logging15ErrnoLogMessageD1Ev(ptr noundef nonnull align 8 dereferenceable(416) %6) #16
  br label %62

62:                                               ; preds = %61, %56
  %63 = load i1, ptr %7, align 1
  br i1 %63, label %64, label %65

64:                                               ; preds = %62
  call void @llvm.lifetime.end.p0(i64 416, ptr %6) #16
  br label %65

65:                                               ; preds = %64, %62
  call void @llvm.lifetime.end.p0(i64 1, ptr %5) #16
  br label %120

66:                                               ; preds = %55, %35
  %67 = getelementptr inbounds nuw %"class.base::SharedMemory", ptr %17, i32 0, i32 0
  store i32 -1, ptr %67, align 8, !tbaa !19
  br label %68

68:                                               ; preds = %66, %1
  %69 = getelementptr inbounds nuw %"class.base::SharedMemory", ptr %17, i32 0, i32 1
  %70 = load i32, ptr %69, align 4, !tbaa !22
  %71 = icmp sgt i32 %70, 0
  br i1 %71, label %72, label %119

72:                                               ; preds = %68
  call void @llvm.lifetime.start.p0(i64 4, ptr %11) #16
  br label %73

73:                                               ; preds = %72
  %74 = getelementptr inbounds nuw %"class.base::SharedMemory", ptr %17, i32 0, i32 1
  %75 = load i32, ptr %74, align 4, !tbaa !22
  %76 = call i32 @close(i32 noundef %75)
  store i32 %76, ptr %11, align 4, !tbaa !34
  %77 = load i32, ptr %11, align 4, !tbaa !34
  %78 = icmp eq i32 %77, -1
  br i1 %78, label %79, label %84

79:                                               ; preds = %73
  %80 = call ptr @__errno_location() #17
  %81 = load i32, ptr %80, align 4, !tbaa !34
  %82 = icmp eq i32 %81, 4
  br i1 %82, label %83, label %84

83:                                               ; preds = %79
  store i32 0, ptr %11, align 4, !tbaa !34
  br label %84

84:                                               ; preds = %83, %79, %73
  br label %85

85:                                               ; preds = %84
  br label %86

86:                                               ; preds = %85
  %87 = load i32, ptr %11, align 4, !tbaa !34
  store i32 %87, ptr %12, align 4, !tbaa !34
  call void @llvm.lifetime.end.p0(i64 4, ptr %11) #16
  %88 = load i32, ptr %12, align 4, !tbaa !34
  %89 = icmp slt i32 %88, 0
  br i1 %89, label %90, label %117

90:                                               ; preds = %86
  %91 = call noundef zeroext i1 @_ZN7logging22ShouldCreateLogMessageEi(i32 noundef 2)
  call void @llvm.lifetime.start.p0(i64 1, ptr %13) #16
  store i1 false, ptr %15, align 1
  store i1 false, ptr %16, align 1
  br i1 %91, label %93, label %92

92:                                               ; preds = %90
  br label %100

93:                                               ; preds = %90
  call void @_ZN7logging17LogMessageVoidifyC2Ev(ptr noundef nonnull align 1 dereferenceable(1) %13)
  call void @llvm.lifetime.start.p0(i64 416, ptr %14) #16
  store i1 true, ptr %15, align 1
  %94 = call noundef i32 @_ZN7logging22GetLastSystemErrorCodeEv()
  call void @_ZN7logging15ErrnoLogMessageC1EPKciii(ptr noundef nonnull align 8 dereferenceable(416) %14, ptr noundef @.str, i32 noundef 409, i32 noundef 2, i32 noundef %94)
  store i1 true, ptr %16, align 1
  %95 = invoke noundef nonnull align 8 dereferenceable(8) ptr @_ZN7logging15ErrnoLogMessage6streamEv(ptr noundef nonnull align 8 dereferenceable(416) %14)
          to label %96 unwind label %107

96:                                               ; preds = %93
  %97 = invoke noundef nonnull align 8 dereferenceable(8) ptr @_ZStlsISt11char_traitsIcEERSt13basic_ostreamIcT_ES5_PKc(ptr noundef nonnull align 8 dereferenceable(8) %95, ptr noundef @.str.11)
          to label %98 unwind label %107

98:                                               ; preds = %96
  invoke void @_ZN7logging17LogMessageVoidifyanERSo(ptr noundef nonnull align 1 dereferenceable(1) %13, ptr noundef nonnull align 8 dereferenceable(8) %97)
          to label %99 unwind label %107

99:                                               ; preds = %98
  br label %100

100:                                              ; preds = %99, %92
  %101 = load i1, ptr %16, align 1
  br i1 %101, label %102, label %103

102:                                              ; preds = %100
  call void @_ZN7logging15ErrnoLogMessageD1Ev(ptr noundef nonnull align 8 dereferenceable(416) %14) #16
  br label %103

103:                                              ; preds = %102, %100
  %104 = load i1, ptr %15, align 1
  br i1 %104, label %105, label %106

105:                                              ; preds = %103
  call void @llvm.lifetime.end.p0(i64 416, ptr %14) #16
  br label %106

106:                                              ; preds = %105, %103
  call void @llvm.lifetime.end.p0(i64 1, ptr %13) #16
  br label %117

107:                                              ; preds = %98, %96, %93
  %108 = landingpad { ptr, i32 }
          cleanup
  %109 = extractvalue { ptr, i32 } %108, 0
  store ptr %109, ptr %9, align 8
  %110 = extractvalue { ptr, i32 } %108, 1
  store i32 %110, ptr %10, align 4
  %111 = load i1, ptr %16, align 1
  br i1 %111, label %112, label %113

112:                                              ; preds = %107
  call void @_ZN7logging15ErrnoLogMessageD1Ev(ptr noundef nonnull align 8 dereferenceable(416) %14) #16
  br label %113

113:                                              ; preds = %112, %107
  %114 = load i1, ptr %15, align 1
  br i1 %114, label %115, label %116

115:                                              ; preds = %113
  call void @llvm.lifetime.end.p0(i64 416, ptr %14) #16
  br label %116

116:                                              ; preds = %115, %113
  call void @llvm.lifetime.end.p0(i64 1, ptr %13) #16
  br label %120

117:                                              ; preds = %106, %86
  %118 = getelementptr inbounds nuw %"class.base::SharedMemory", ptr %17, i32 0, i32 1
  store i32 -1, ptr %118, align 4, !tbaa !22
  br label %119

119:                                              ; preds = %117, %68
  ret void

120:                                              ; preds = %116, %65
  %121 = load ptr, ptr %9, align 8
  %122 = load i32, ptr %10, align 4
  %123 = insertvalue { ptr, i32 } poison, ptr %121, 0
  %124 = insertvalue { ptr, i32 } %123, i32 %122, 1
  resume { ptr, i32 } %124
}