; Function Attrs: mustprogress uwtable
define void @_ZN4base12SharedMemory5CloseEv(ptr noundef nonnull align 8 captures(none) dereferenceable(40) %0) local_unnamed_addr #5 align 2 personality ptr @__gxx_personality_v0 {
  %2 = alloca %"class.logging::ErrnoLogMessage", align 8
  %3 = alloca %"class.logging::ErrnoLogMessage", align 8
  %4 = load i32, ptr %0, align 8, !tbaa !15
  %5 = icmp sgt i32 %4, 0
  br i1 %5, label %6, label %22

6:                                                ; preds = %1
  %7 = tail call i32 @close(i32 noundef %4)
  %8 = icmp eq i32 %7, -1
  br i1 %8, label %9, label %13

9:                                                ; preds = %6
  %10 = tail call ptr @__errno_location() #24
  %11 = load i32, ptr %10, align 4, !tbaa !25
  %12 = icmp eq i32 %11, 4
  br i1 %12, label %.critedge29, label %.thread

13:                                               ; preds = %6
  %14 = icmp slt i32 %7, 0
  br i1 %14, label %.thread, label %.critedge29

.thread:                                          ; preds = %9, %13
  %15 = tail call noundef zeroext i1 @_ZN7logging22ShouldCreateLogMessageEi(i32 noundef 2)
  br i1 %15, label %16, label %.critedge29

16:                                               ; preds = %.thread
  call void @llvm.lifetime.start.p0(i64 416, ptr nonnull %2) #22
  %17 = tail call noundef i32 @_ZN7logging22GetLastSystemErrorCodeEv()
  call void @_ZN7logging15ErrnoLogMessageC1EPKciii(ptr noundef nonnull align 8 dereferenceable(416) %2, ptr noundef nonnull @.str, i32 noundef 404, i32 noundef 2, i32 noundef %17)
  %18 = getelementptr inbounds nuw i8, ptr %2, i64 16
  %19 = invoke noundef nonnull align 8 dereferenceable(8) ptr @_ZSt16__ostream_insertIcSt11char_traitsIcEERSt13basic_ostreamIT_T0_ES6_PKS3_l(ptr noundef nonnull align 8 dereferenceable(8) %18, ptr noundef nonnull @.str.11, i64 noundef 5)
          to label %.critedge unwind label %20

.critedge:                                        ; preds = %16
  call void @_ZN7logging15ErrnoLogMessageD1Ev(ptr noundef nonnull align 8 dereferenceable(416) %2) #22
  call void @llvm.lifetime.end.p0(i64 416, ptr nonnull %2) #22
  br label %.critedge29

20:                                               ; preds = %16
  %21 = landingpad { ptr, i32 }
          cleanup
  call void @_ZN7logging15ErrnoLogMessageD1Ev(ptr noundef nonnull align 8 dereferenceable(416) %2) #22
  call void @llvm.lifetime.end.p0(i64 416, ptr nonnull %2) #22
  br label %43

.critedge29:                                      ; preds = %9, %.critedge, %.thread, %13
  store i32 -1, ptr %0, align 8, !tbaa !15
  br label %22

22:                                               ; preds = %.critedge29, %1
  %23 = getelementptr inbounds nuw i8, ptr %0, i64 4
  %24 = load i32, ptr %23, align 4, !tbaa !18
  %25 = icmp sgt i32 %24, 0
  br i1 %25, label %26, label %42

26:                                               ; preds = %22
  %27 = call i32 @close(i32 noundef %24)
  %28 = icmp eq i32 %27, -1
  br i1 %28, label %29, label %33

29:                                               ; preds = %26
  %30 = tail call ptr @__errno_location() #24
  %31 = load i32, ptr %30, align 4, !tbaa !25
  %32 = icmp eq i32 %31, 4
  br i1 %32, label %.critedge33, label %.thread40

33:                                               ; preds = %26
  %34 = icmp slt i32 %27, 0
  br i1 %34, label %.thread40, label %.critedge33

.thread40:                                        ; preds = %29, %33
  %35 = call noundef zeroext i1 @_ZN7logging22ShouldCreateLogMessageEi(i32 noundef 2)
  br i1 %35, label %36, label %.critedge33

36:                                               ; preds = %.thread40
  call void @llvm.lifetime.start.p0(i64 416, ptr nonnull %3) #22
  %37 = call noundef i32 @_ZN7logging22GetLastSystemErrorCodeEv()
  call void @_ZN7logging15ErrnoLogMessageC1EPKciii(ptr noundef nonnull align 8 dereferenceable(416) %3, ptr noundef nonnull @.str, i32 noundef 409, i32 noundef 2, i32 noundef %37)
  %38 = getelementptr inbounds nuw i8, ptr %3, i64 16
  %39 = invoke noundef nonnull align 8 dereferenceable(8) ptr @_ZSt16__ostream_insertIcSt11char_traitsIcEERSt13basic_ostreamIT_T0_ES6_PKS3_l(ptr noundef nonnull align 8 dereferenceable(8) %38, ptr noundef nonnull @.str.11, i64 noundef 5)
          to label %.critedge32 unwind label %40

.critedge32:                                      ; preds = %36
  call void @_ZN7logging15ErrnoLogMessageD1Ev(ptr noundef nonnull align 8 dereferenceable(416) %3) #22
  call void @llvm.lifetime.end.p0(i64 416, ptr nonnull %3) #22
  br label %.critedge33

40:                                               ; preds = %36
  %41 = landingpad { ptr, i32 }
          cleanup
  call void @_ZN7logging15ErrnoLogMessageD1Ev(ptr noundef nonnull align 8 dereferenceable(416) %3) #22
  call void @llvm.lifetime.end.p0(i64 416, ptr nonnull %3) #22
  br label %43

.critedge33:                                      ; preds = %29, %.critedge32, %.thread40, %33
  store i32 -1, ptr %23, align 4, !tbaa !18
  br label %42

42:                                               ; preds = %.critedge33, %22
  ret void

43:                                               ; preds = %40, %20
  %.pn = phi { ptr, i32 } [ %41, %40 ], [ %21, %20 ]
  resume { ptr, i32 } %.pn
}